target datalayout = "e-m:e-p270:32:32-p271:32:32-p272:64:64-i64:64-i128:128-f80:128-n8:16:32:64-S128"
target triple = "x86_64-pc-linux-gnu"

%class.InterfaceSortFilterModel = type { %class.QSortFilterProxyModel, i8, i8, i8, i8, i8, %class.QList, %class.QList.0 }
%class.QSortFilterProxyModel = type { %class.QAbstractProxyModel }
%class.QAbstractProxyModel = type { %class.QAbstractItemModel }
%class.QAbstractItemModel = type { %class.QObject }
%class.QObject = type { ptr, %class.QScopedPointer }
%class.QScopedPointer = type { ptr }
%class.QList = type { %struct.QArrayDataPointer }
%struct.QArrayDataPointer = type { ptr, ptr, i64 }
%class.QList.0 = type { %struct.QArrayDataPointer.3 }
%struct.QArrayDataPointer.3 = type { ptr, ptr, i64 }

; Function Attrs: mustprogress uwtable
define void @_ZN24InterfaceSortFilterModel15setFilterByTypeEbb(ptr noundef nonnull align 8 dereferenceable(72) %0, i1 noundef zeroext %1, i1 noundef zeroext %2) #0 align 2 {
  %4 = alloca ptr, align 8
  %5 = alloca i8, align 1
  %6 = alloca i8, align 1
  store ptr %0, ptr %4, align 8
  %7 = zext i1 %1 to i8
  store i8 %7, ptr %5, align 1
  %8 = zext i1 %2 to i8
  store i8 %8, ptr %6, align 1
  %9 = load ptr, ptr %4, align 8
  %10 = load i8, ptr %5, align 1
  %11 = trunc i8 %10 to i1
  %12 = getelementptr inbounds %class.InterfaceSortFilterModel, ptr %9, i32 0, i32 2
  %13 = zext i1 %11 to i8
  store i8 %13, ptr %12, align 1
  %14 = load i8, ptr %6, align 1
  %15 = trunc i8 %14 to i1
  %16 = getelementptr inbounds %class.InterfaceSortFilterModel, ptr %9, i32 0, i32 3
  %17 = zext i1 %15 to i8
  store i8 %17, ptr %16, align 2
  call void @_ZN21QSortFilterProxyModel10invalidateEv(ptr noundef nonnull align 8 dereferenceable(16) %9)
  ret void
}