; Function Attrs: mustprogress uwtable
define void @_ZN24InterfaceSortFilterModel15setFilterByTypeEbb(ptr noundef nonnull align 8 dereferenceable(72) %0, i1 noundef zeroext %1, i1 noundef zeroext %2) local_unnamed_addr #0 align 2 {
  %4 = zext i1 %1 to i8
  %5 = zext i1 %2 to i8
  %6 = getelementptr inbounds i8, ptr %0, i64 17
  store i8 %4, ptr %6, align 1
  %7 = getelementptr inbounds i8, ptr %0, i64 18
  store i8 %5, ptr %7, align 2
  tail call void @_ZN21QSortFilterProxyModel10invalidateEv(ptr noundef nonnull align 8 dereferenceable(16) %0)
  ret void
}